target datalayout = "e-m:e-p270:32:32-p271:32:32-p272:64:64-i64:64-i128:128-f80:128-n8:16:32:64-S128"
target triple = "x86_64-pc-linux-gnu"

@.str.26 = private unnamed_addr constant [2 x i8] c"\0A\00", align 1
@stdout = external global ptr, align 8
@.str.31 = private unnamed_addr constant [39 x i8] c"Usage: dftest [OPTIONS] -- EXPRESSION\0A\00", align 1
@.str.32 = private unnamed_addr constant [10 x i8] c"Options:\0A\00", align 1
@.str.33 = private unnamed_addr constant [43 x i8] c"  -V, --verbose       enable verbose mode\0A\00", align 1
@.str.34 = private unnamed_addr constant [64 x i8] c"  -C <config profile> run with specified configuration profile\0A\00", align 1
@.str.35 = private unnamed_addr constant [51 x i8] c"  -d, --debug[=N]     increase or set debug level\0A\00", align 1
@.str.36 = private unnamed_addr constant [47 x i8] c"  -D                  set maximum debug level\0A\00", align 1
@.str.37 = private unnamed_addr constant [47 x i8] c"  -f, --flex          enable Flex debug trace\0A\00", align 1
@.str.38 = private unnamed_addr constant [48 x i8] c"  -l, --lemon         enable Lemon debug trace\0A\00", align 1
@.str.39 = private unnamed_addr constant [41 x i8] c"  -s, --syntax        print syntax tree\0A\00", align 1
@.str.40 = private unnamed_addr constant [42 x i8] c"  -m  --macros        print saved macros\0A\00", align 1
@.str.41 = private unnamed_addr constant [54 x i8] c"  -t, --timer         print elapsed compilation time\0A\00", align 1
@.str.42 = private unnamed_addr constant [61 x i8] c"  -r  --return-vals   return field values for the tree root\0A\00", align 1
@.str.43 = private unnamed_addr constant [54 x i8] c"  -0, --optimize=0    do not optimize (check syntax)\0A\00", align 1
@.str.44 = private unnamed_addr constant [46 x i8] c"      --types         show field value types\0A\00", align 1
@.str.45 = private unnamed_addr constant [57 x i8] c"      --refs          dump some runtime data structures\0A\00", align 1
@.str.46 = private unnamed_addr constant [81 x i8] c"      --file <path>   read filters line-by-line from a file (use '-' for stdin)\0A\00", align 1
@.str.47 = private unnamed_addr constant [50 x i8] c"  -h, --help          display this help and exit\0A\00", align 1
@.str.48 = private unnamed_addr constant [37 x i8] c"  -v, --version       print version\0A\00", align 1

; Function Attrs: noreturn null_pointer_is_valid sspstrong uwtable
define internal void @print_usage(i32 noundef %0) #4 {
  %2 = alloca i32, align 4
  %3 = alloca ptr, align 8
  store i32 %0, ptr %2, align 4
  call void @llvm.lifetime.start.p0(i64 8, ptr %3) #9
  %4 = load ptr, ptr @stdout, align 8
  store ptr %4, ptr %3, align 8
  %5 = load ptr, ptr %3, align 8
  %6 = call i32 (ptr, i32, ptr, ...) @__fprintf_chk(ptr noundef %5, i32 noundef 2, ptr noundef @.str.26)
  %7 = load ptr, ptr %3, align 8
  %8 = call i32 (ptr, i32, ptr, ...) @__fprintf_chk(ptr noundef %7, i32 noundef 2, ptr noundef @.str.31)
  %9 = load ptr, ptr %3, align 8
  %10 = call i32 (ptr, i32, ptr, ...) @__fprintf_chk(ptr noundef %9, i32 noundef 2, ptr noundef @.str.32)
  %11 = load ptr, ptr %3, align 8
  %12 = call i32 (ptr, i32, ptr, ...) @__fprintf_chk(ptr noundef %11, i32 noundef 2, ptr noundef @.str.33)
  %13 = load ptr, ptr %3, align 8
  %14 = call i32 (ptr, i32, ptr, ...) @__fprintf_chk(ptr noundef %13, i32 noundef 2, ptr noundef @.str.34)
  %15 = load ptr, ptr %3, align 8
  %16 = call i32 (ptr, i32, ptr, ...) @__fprintf_chk(ptr noundef %15, i32 noundef 2, ptr noundef @.str.35)
  %17 = load ptr, ptr %3, align 8
  %18 = call i32 (ptr, i32, ptr, ...) @__fprintf_chk(ptr noundef %17, i32 noundef 2, ptr noundef @.str.36)
  %19 = load ptr, ptr %3, align 8
  %20 = call i32 (ptr, i32, ptr, ...) @__fprintf_chk(ptr noundef %19, i32 noundef 2, ptr noundef @.str.37)
  %21 = load ptr, ptr %3, align 8
  %22 = call i32 (ptr, i32, ptr, ...) @__fprintf_chk(ptr noundef %21, i32 noundef 2, ptr noundef @.str.38)
  %23 = load ptr, ptr %3, align 8
  %24 = call i32 (ptr, i32, ptr, ...) @__fprintf_chk(ptr noundef %23, i32 noundef 2, ptr noundef @.str.39)
  %25 = load ptr, ptr %3, align 8
  %26 = call i32 (ptr, i32, ptr, ...) @__fprintf_chk(ptr noundef %25, i32 noundef 2, ptr noundef @.str.40)
  %27 = load ptr, ptr %3, align 8
  %28 = call i32 (ptr, i32, ptr, ...) @__fprintf_chk(ptr noundef %27, i32 noundef 2, ptr noundef @.str.41)
  %29 = load ptr, ptr %3, align 8
  %30 = call i32 (ptr, i32, ptr, ...) @__fprintf_chk(ptr noundef %29, i32 noundef 2, ptr noundef @.str.42)
  %31 = load ptr, ptr %3, align 8
  %32 = call i32 (ptr, i32, ptr, ...) @__fprintf_chk(ptr noundef %31, i32 noundef 2, ptr noundef @.str.43)
  %33 = load ptr, ptr %3, align 8
  %34 = call i32 (ptr, i32, ptr, ...) @__fprintf_chk(ptr noundef %33, i32 noundef 2, ptr noundef @.str.44)
  %35 = load ptr, ptr %3, align 8
  %36 = call i32 (ptr, i32, ptr, ...) @__fprintf_chk(ptr noundef %35, i32 noundef 2, ptr noundef @.str.45)
  %37 = load ptr, ptr %3, align 8
  %38 = call i32 (ptr, i32, ptr, ...) @__fprintf_chk(ptr noundef %37, i32 noundef 2, ptr noundef @.str.46)
  %39 = load ptr, ptr %3, align 8
  %40 = call i32 (ptr, i32, ptr, ...) @__fprintf_chk(ptr noundef %39, i32 noundef 2, ptr noundef @.str.47)
  %41 = load ptr, ptr %3, align 8
  %42 = call i32 (ptr, i32, ptr, ...) @__fprintf_chk(ptr noundef %41, i32 noundef 2, ptr noundef @.str.48)
  %43 = load ptr, ptr %3, align 8
  %44 = call i32 (ptr, i32, ptr, ...) @__fprintf_chk(ptr noundef %43, i32 noundef 2, ptr noundef @.str.26)
  %45 = load ptr, ptr %3, align 8
  call void @ws_log_print_usage(ptr noundef %45)
  %46 = load i32, ptr %2, align 4
  call void @exit(i32 noundef %46) #11
  unreachable
}