; Function Attrs: noreturn null_pointer_is_valid sspstrong uwtable
define internal fastcc void @print_usage(i32 noundef range(i32 0, 2) %0) unnamed_addr #0 {
  %2 = load ptr, ptr @stdout, align 8
  %3 = tail call i32 (ptr, i32, ptr, ...) @__fprintf_chk(ptr noundef %2, i32 noundef 2, ptr noundef nonnull @.str.26)
  %4 = tail call i32 (ptr, i32, ptr, ...) @__fprintf_chk(ptr noundef %2, i32 noundef 2, ptr noundef nonnull @.str.31)
  %5 = tail call i32 (ptr, i32, ptr, ...) @__fprintf_chk(ptr noundef %2, i32 noundef 2, ptr noundef nonnull @.str.32)
  %6 = tail call i32 (ptr, i32, ptr, ...) @__fprintf_chk(ptr noundef %2, i32 noundef 2, ptr noundef nonnull @.str.33)
  %7 = tail call i32 (ptr, i32, ptr, ...) @__fprintf_chk(ptr noundef %2, i32 noundef 2, ptr noundef nonnull @.str.34)
  %8 = tail call i32 (ptr, i32, ptr, ...) @__fprintf_chk(ptr noundef %2, i32 noundef 2, ptr noundef nonnull @.str.35)
  %9 = tail call i32 (ptr, i32, ptr, ...) @__fprintf_chk(ptr noundef %2, i32 noundef 2, ptr noundef nonnull @.str.36)
  %10 = tail call i32 (ptr, i32, ptr, ...) @__fprintf_chk(ptr noundef %2, i32 noundef 2, ptr noundef nonnull @.str.37)
  %11 = tail call i32 (ptr, i32, ptr, ...) @__fprintf_chk(ptr noundef %2, i32 noundef 2, ptr noundef nonnull @.str.38)
  %12 = tail call i32 (ptr, i32, ptr, ...) @__fprintf_chk(ptr noundef %2, i32 noundef 2, ptr noundef nonnull @.str.39)
  %13 = tail call i32 (ptr, i32, ptr, ...) @__fprintf_chk(ptr noundef %2, i32 noundef 2, ptr noundef nonnull @.str.40)
  %14 = tail call i32 (ptr, i32, ptr, ...) @__fprintf_chk(ptr noundef %2, i32 noundef 2, ptr noundef nonnull @.str.41)
  %15 = tail call i32 (ptr, i32, ptr, ...) @__fprintf_chk(ptr noundef %2, i32 noundef 2, ptr noundef nonnull @.str.42)
  %16 = tail call i32 (ptr, i32, ptr, ...) @__fprintf_chk(ptr noundef %2, i32 noundef 2, ptr noundef nonnull @.str.43)
  %17 = tail call i32 (ptr, i32, ptr, ...) @__fprintf_chk(ptr noundef %2, i32 noundef 2, ptr noundef nonnull @.str.44)
  %18 = tail call i32 (ptr, i32, ptr, ...) @__fprintf_chk(ptr noundef %2, i32 noundef 2, ptr noundef nonnull @.str.45)
  %19 = tail call i32 (ptr, i32, ptr, ...) @__fprintf_chk(ptr noundef %2, i32 noundef 2, ptr noundef nonnull @.str.46)
  %20 = tail call i32 (ptr, i32, ptr, ...) @__fprintf_chk(ptr noundef %2, i32 noundef 2, ptr noundef nonnull @.str.47)
  %21 = tail call i32 (ptr, i32, ptr, ...) @__fprintf_chk(ptr noundef %2, i32 noundef 2, ptr noundef nonnull @.str.48)
  %22 = tail call i32 (ptr, i32, ptr, ...) @__fprintf_chk(ptr noundef %2, i32 noundef 2, ptr noundef nonnull @.str.26)
  tail call void @ws_log_print_usage(ptr noundef %2)
  tail call void @exit(i32 noundef %0) #15
  unreachable
}